target datalayout = "e-m:e-p270:32:32-p271:32:32-p272:64:64-i64:64-i128:128-f80:128-n8:16:32:64-S128"
target triple = "x86_64-pc-linux-gnu"

%struct.mi_heap_s = type { ptr, ptr, i64, i32, i64, [2 x i64], %struct.mi_random_cxt_s, i64, i64, i64, ptr, i8, i8, [129 x ptr], [75 x %struct.mi_page_queue_s] }
%struct.mi_random_cxt_s = type { [16 x i32], [16 x i32], i32, i8 }
%struct.mi_page_queue_s = type { ptr, ptr, i64 }
%struct.mi_page_s = type { i32, i32, i8, i16, i16, %union.mi_page_flags_s, i8, ptr, ptr, i16, i8, i8, i64, ptr, i64, i64, ptr, ptr, [1 x ptr] }
%union.mi_page_flags_s = type { i8 }

@_mi_page_empty = external hidden constant %struct.mi_page_s, align 64

; Function Attrs: inlinehint nounwind uwtable
define internal i64 @mi_clz(i64 noundef %0) #1 {
  %2 = alloca i64, align 8
  %3 = alloca i64, align 8
  store i64 %0, ptr %3, align 8, !tbaa !3
  %4 = load i64, ptr %3, align 8, !tbaa !3
  %5 = icmp eq i64 %4, 0
  br i1 %5, label %6, label %7

6:                                                ; preds = %1
  store i64 64, ptr %2, align 8
  br label %12

7:                                                ; preds = %1
  %8 = load i64, ptr %3, align 8, !tbaa !3
  %9 = call i64 @llvm.ctlz.i64(i64 %8, i1 true)
  %10 = trunc i64 %9 to i32
  %11 = sext i32 %10 to i64
  store i64 %11, ptr %2, align 8
  br label %12

12:                                               ; preds = %7, %6
  %13 = load i64, ptr %2, align 8
  ret i64 %13
}

; Function Attrs: inlinehint nounwind uwtable
define internal i64 @mi_bsr(i64 noundef %0) #1 {
  %2 = alloca i64, align 8
  store i64 %0, ptr %2, align 8, !tbaa !3
  %3 = load i64, ptr %2, align 8, !tbaa !3
  %4 = icmp eq i64 %3, 0
  br i1 %4, label %5, label %6

5:                                                ; preds = %1
  br label %10

6:                                                ; preds = %1
  %7 = load i64, ptr %2, align 8, !tbaa !3
  %8 = call i64 @mi_clz(i64 noundef %7) #10
  %9 = sub i64 63, %8
  br label %10

10:                                               ; preds = %6, %5
  %11 = phi i64 [ 64, %5 ], [ %9, %6 ]
  ret i64 %11
}

; Function Attrs: inlinehint nounwind uwtable
define internal zeroext i8 @mi_bin(i64 noundef %0) #1 {
  %2 = alloca i64, align 8
  %3 = alloca i64, align 8
  %4 = alloca i8, align 1
  %5 = alloca i8, align 1
  store i64 %0, ptr %2, align 8, !tbaa !3
  call void @llvm.lifetime.start.p0(i64 8, ptr %3) #6
  %6 = load i64, ptr %2, align 8, !tbaa !3
  %7 = call i64 @_mi_wsize_from_size(i64 noundef %6) #10
  store i64 %7, ptr %3, align 8, !tbaa !3
  call void @llvm.lifetime.start.p0(i64 1, ptr %4) #6
  %8 = load i64, ptr %3, align 8, !tbaa !3
  %9 = icmp ule i64 %8, 1
  br i1 %9, label %10, label %11

10:                                               ; preds = %1
  store i8 1, ptr %4, align 1, !tbaa !7
  br label %46

11:                                               ; preds = %1
  %12 = load i64, ptr %3, align 8, !tbaa !3
  %13 = icmp ule i64 %12, 8
  br i1 %13, label %14, label %19

14:                                               ; preds = %11
  %15 = load i64, ptr %3, align 8, !tbaa !3
  %16 = add i64 %15, 1
  %17 = and i64 %16, -2
  %18 = trunc i64 %17 to i8
  store i8 %18, ptr %4, align 1, !tbaa !7
  br label %45

19:                                               ; preds = %11
  %20 = load i64, ptr %3, align 8, !tbaa !3
  %21 = icmp ugt i64 %20, 16384
  br i1 %21, label %22, label %23

22:                                               ; preds = %19
  store i8 73, ptr %4, align 1, !tbaa !7
  br label %44

23:                                               ; preds = %19
  %24 = load i64, ptr %3, align 8, !tbaa !3
  %25 = add i64 %24, -1
  store i64 %25, ptr %3, align 8, !tbaa !3
  call void @llvm.lifetime.start.p0(i64 1, ptr %5) #6
  %26 = load i64, ptr %3, align 8, !tbaa !3
  %27 = call i64 @mi_bsr(i64 noundef %26) #10
  %28 = trunc i64 %27 to i8
  store i8 %28, ptr %5, align 1, !tbaa !7
  %29 = load i8, ptr %5, align 1, !tbaa !7
  %30 = zext i8 %29 to i32
  %31 = shl i32 %30, 2
  %32 = load i64, ptr %3, align 8, !tbaa !3
  %33 = load i8, ptr %5, align 1, !tbaa !7
  %34 = zext i8 %33 to i32
  %35 = sub nsw i32 %34, 2
  %36 = zext i32 %35 to i64
  %37 = lshr i64 %32, %36
  %38 = and i64 %37, 3
  %39 = trunc i64 %38 to i8
  %40 = zext i8 %39 to i32
  %41 = add nsw i32 %31, %40
  %42 = sub nsw i32 %41, 3
  %43 = trunc i32 %42 to i8
  store i8 %43, ptr %4, align 1, !tbaa !7
  call void @llvm.lifetime.end.p0(i64 1, ptr %5) #6
  br label %44

44:                                               ; preds = %23, %22
  br label %45

45:                                               ; preds = %44, %14
  br label %46

46:                                               ; preds = %45, %10
  %47 = load i8, ptr %4, align 1, !tbaa !7
  call void @llvm.lifetime.end.p0(i64 1, ptr %4) #6
  call void @llvm.lifetime.end.p0(i64 8, ptr %3) #6
  ret i8 %47
}

; Function Attrs: inlinehint nounwind uwtable
define internal i64 @_mi_wsize_from_size(i64 noundef %0) #1 {
  %2 = alloca i64, align 8
  store i64 %0, ptr %2, align 8, !tbaa !3
  %3 = load i64, ptr %2, align 8, !tbaa !3
  %4 = add i64 %3, 8
  %5 = sub i64 %4, 1
  %6 = udiv i64 %5, 8
  ret i64 %6
}

; Function Attrs: inlinehint nounwind uwtable
define internal void @mi_heap_queue_first_update(ptr noundef %0, ptr noundef %1) #1 {
  %3 = alloca ptr, align 8
  %4 = alloca ptr, align 8
  %5 = alloca i64, align 8
  %6 = alloca i32, align 4
  %7 = alloca ptr, align 8
  %8 = alloca i64, align 8
  %9 = alloca i64, align 8
  %10 = alloca ptr, align 8
  %11 = alloca i8, align 1
  %12 = alloca ptr, align 8
  %13 = alloca i64, align 8
  store ptr %0, ptr %3, align 8, !tbaa !12
  store ptr %1, ptr %4, align 8, !tbaa !14
  call void @llvm.lifetime.start.p0(i64 8, ptr %5) #6
  %14 = load ptr, ptr %4, align 8, !tbaa !14
  %15 = getelementptr inbounds nuw %struct.mi_page_queue_s, ptr %14, i32 0, i32 2
  %16 = load i64, ptr %15, align 8, !tbaa !8
  store i64 %16, ptr %5, align 8, !tbaa !3
  %17 = load i64, ptr %5, align 8, !tbaa !3
  %18 = icmp ugt i64 %17, 1024
  br i1 %18, label %19, label %20

19:                                               ; preds = %2
  store i32 1, ptr %6, align 4
  br label %100

20:                                               ; preds = %2
  call void @llvm.lifetime.start.p0(i64 8, ptr %7) #6
  %21 = load ptr, ptr %4, align 8, !tbaa !14
  %22 = getelementptr inbounds nuw %struct.mi_page_queue_s, ptr %21, i32 0, i32 0
  %23 = load ptr, ptr %22, align 8, !tbaa !16
  store ptr %23, ptr %7, align 8, !tbaa !17
  %24 = load ptr, ptr %4, align 8, !tbaa !14
  %25 = getelementptr inbounds nuw %struct.mi_page_queue_s, ptr %24, i32 0, i32 0
  %26 = load ptr, ptr %25, align 8, !tbaa !16
  %27 = icmp eq ptr %26, null
  br i1 %27, label %28, label %29

28:                                               ; preds = %20
  store ptr @_mi_page_empty, ptr %7, align 8, !tbaa !17
  br label %29

29:                                               ; preds = %28, %20
  call void @llvm.lifetime.start.p0(i64 8, ptr %8) #6
  call void @llvm.lifetime.start.p0(i64 8, ptr %9) #6
  %30 = load i64, ptr %5, align 8, !tbaa !3
  %31 = call i64 @_mi_wsize_from_size(i64 noundef %30) #10
  store i64 %31, ptr %9, align 8, !tbaa !3
  call void @llvm.lifetime.start.p0(i64 8, ptr %10) #6
  %32 = load ptr, ptr %3, align 8, !tbaa !12
  %33 = getelementptr inbounds nuw %struct.mi_heap_s, ptr %32, i32 0, i32 13
  %34 = getelementptr inbounds [129 x ptr], ptr %33, i64 0, i64 0
  store ptr %34, ptr %10, align 8, !tbaa !34
  %35 = load ptr, ptr %10, align 8, !tbaa !34
  %36 = load i64, ptr %9, align 8, !tbaa !3
  %37 = getelementptr inbounds nuw ptr, ptr %35, i64 %36
  %38 = load ptr, ptr %37, align 8, !tbaa !17
  %39 = load ptr, ptr %7, align 8, !tbaa !17
  %40 = icmp eq ptr %38, %39
  br i1 %40, label %41, label %42

41:                                               ; preds = %29
  store i32 1, ptr %6, align 4
  br label %99

42:                                               ; preds = %29
  %43 = load i64, ptr %9, align 8, !tbaa !3
  %44 = icmp ule i64 %43, 1
  br i1 %44, label %45, label %46

45:                                               ; preds = %42
  store i64 0, ptr %8, align 8, !tbaa !3
  br label %83

46:                                               ; preds = %42
  call void @llvm.lifetime.start.p0(i64 1, ptr %11) #6
  %47 = load i64, ptr %5, align 8, !tbaa !3
  %48 = call zeroext i8 @mi_bin(i64 noundef %47) #10
  store i8 %48, ptr %11, align 1, !tbaa !7
  call void @llvm.lifetime.start.p0(i64 8, ptr %12) #6
  %49 = load ptr, ptr %4, align 8, !tbaa !14
  %50 = getelementptr inbounds %struct.mi_page_queue_s, ptr %49, i64 -1
  store ptr %50, ptr %12, align 8, !tbaa !14
  br label %51

51:                                               ; preds = %68, %46
  %52 = load i8, ptr %11, align 1, !tbaa !7
  %53 = zext i8 %52 to i32
  %54 = load ptr, ptr %12, align 8, !tbaa !14
  %55 = getelementptr inbounds nuw %struct.mi_page_queue_s, ptr %54, i32 0, i32 2
  %56 = load i64, ptr %55, align 8, !tbaa !8
  %57 = call zeroext i8 @mi_bin(i64 noundef %56) #10
  %58 = zext i8 %57 to i32
  %59 = icmp eq i32 %53, %58
  br i1 %59, label %60, label %66

60:                                               ; preds = %51
  %61 = load ptr, ptr %12, align 8, !tbaa !14
  %62 = load ptr, ptr %3, align 8, !tbaa !12
  %63 = getelementptr inbounds nuw %struct.mi_heap_s, ptr %62, i32 0, i32 14
  %64 = getelementptr inbounds [75 x %struct.mi_page_queue_s], ptr %63, i64 0, i64 0
  %65 = icmp ugt ptr %61, %64
  br label %66

66:                                               ; preds = %60, %51
  %67 = phi i1 [ false, %51 ], [ %65, %60 ]
  br i1 %67, label %68, label %71

68:                                               ; preds = %66
  %69 = load ptr, ptr %12, align 8, !tbaa !14
  %70 = getelementptr inbounds %struct.mi_page_queue_s, ptr %69, i32 -1
  store ptr %70, ptr %12, align 8, !tbaa !14
  br label %51, !llvm.loop !37

71:                                               ; preds = %66
  %72 = load ptr, ptr %12, align 8, !tbaa !14
  %73 = getelementptr inbounds nuw %struct.mi_page_queue_s, ptr %72, i32 0, i32 2
  %74 = load i64, ptr %73, align 8, !tbaa !8
  %75 = call i64 @_mi_wsize_from_size(i64 noundef %74) #10
  %76 = add i64 1, %75
  store i64 %76, ptr %8, align 8, !tbaa !3
  %77 = load i64, ptr %8, align 8, !tbaa !3
  %78 = load i64, ptr %9, align 8, !tbaa !3
  %79 = icmp ugt i64 %77, %78
  br i1 %79, label %80, label %82

80:                                               ; preds = %71
  %81 = load i64, ptr %9, align 8, !tbaa !3
  store i64 %81, ptr %8, align 8, !tbaa !3
  br label %82

82:                                               ; preds = %80, %71
  call void @llvm.lifetime.end.p0(i64 8, ptr %12) #6
  call void @llvm.lifetime.end.p0(i64 1, ptr %11) #6
  br label %83

83:                                               ; preds = %82, %45
  call void @llvm.lifetime.start.p0(i64 8, ptr %13) #6
  %84 = load i64, ptr %8, align 8, !tbaa !3
  store i64 %84, ptr %13, align 8, !tbaa !3
  br label %85

85:                                               ; preds = %95, %83
  %86 = load i64, ptr %13, align 8, !tbaa !3
  %87 = load i64, ptr %9, align 8, !tbaa !3
  %88 = icmp ule i64 %86, %87
  br i1 %88, label %90, label %89

89:                                               ; preds = %85
  store i32 4, ptr %6, align 4
  call void @llvm.lifetime.end.p0(i64 8, ptr %13) #6
  br label %98

90:                                               ; preds = %85
  %91 = load ptr, ptr %7, align 8, !tbaa !17
  %92 = load ptr, ptr %10, align 8, !tbaa !34
  %93 = load i64, ptr %13, align 8, !tbaa !3
  %94 = getelementptr inbounds nuw ptr, ptr %92, i64 %93
  store ptr %91, ptr %94, align 8, !tbaa !17
  br label %95

95:                                               ; preds = %90
  %96 = load i64, ptr %13, align 8, !tbaa !3
  %97 = add i64 %96, 1
  store i64 %97, ptr %13, align 8, !tbaa !3
  br label %85, !llvm.loop !38

98:                                               ; preds = %89
  store i32 0, ptr %6, align 4
  br label %99

99:                                               ; preds = %98, %41
  call void @llvm.lifetime.end.p0(i64 8, ptr %10) #6
  call void @llvm.lifetime.end.p0(i64 8, ptr %9) #6
  call void @llvm.lifetime.end.p0(i64 8, ptr %8) #6
  call void @llvm.lifetime.end.p0(i64 8, ptr %7) #6
  br label %100

100:                                              ; preds = %99, %19
  call void @llvm.lifetime.end.p0(i64 8, ptr %5) #6
  %101 = load i32, ptr %6, align 4
  switch i32 %101, label %103 [
    i32 0, label %102
    i32 1, label %102
  ]

102:                                              ; preds = %100, %100
  ret void

103:                                              ; preds = %100
  unreachable
}

; Function Attrs: inlinehint nounwind uwtable
define internal void @mi_page_set_in_full(ptr noundef %0, i1 noundef zeroext %1) #1 {
  %3 = alloca ptr, align 8
  %4 = alloca i8, align 1
  store ptr %0, ptr %3, align 8, !tbaa !17
  %5 = zext i1 %1 to i8
  store i8 %5, ptr %4, align 1, !tbaa !29
  %6 = load i8, ptr %4, align 1, !tbaa !29, !range !31, !noundef !32
  %7 = trunc i8 %6 to i1
  %8 = zext i1 %7 to i8
  %9 = load ptr, ptr %3, align 8, !tbaa !17
  %10 = getelementptr inbounds nuw %struct.mi_page_s, ptr %9, i32 0, i32 5
  %11 = load i8, ptr %10, align 2
  %12 = and i8 %8, 1
  %13 = and i8 %11, -2
  %14 = or i8 %13, %12
  store i8 %14, ptr %10, align 2
  ret void
}

; Function Attrs: inlinehint nounwind uwtable
define internal zeroext i1 @mi_page_queue_is_full(ptr noundef %0) #1 {
  %2 = alloca ptr, align 8
  store ptr %0, ptr %2, align 8, !tbaa !14
  %3 = load ptr, ptr %2, align 8, !tbaa !14
  %4 = getelementptr inbounds nuw %struct.mi_page_queue_s, ptr %3, i32 0, i32 2
  %5 = load i64, ptr %4, align 8, !tbaa !8
  %6 = icmp eq i64 %5, 131088
  ret i1 %6
}

; Function Attrs: nounwind uwtable
define internal void @mi_page_queue_push(ptr noundef %0, ptr noundef %1, ptr noundef %2) #0 {
  %4 = alloca ptr, align 8
  %5 = alloca ptr, align 8
  %6 = alloca ptr, align 8
  store ptr %0, ptr %4, align 8, !tbaa !12
  store ptr %1, ptr %5, align 8, !tbaa !14
  store ptr %2, ptr %6, align 8, !tbaa !17
  %7 = load ptr, ptr %6, align 8, !tbaa !17
  %8 = load ptr, ptr %5, align 8, !tbaa !14
  %9 = call zeroext i1 @mi_page_queue_is_full(ptr noundef %8) #10
  call void @mi_page_set_in_full(ptr noundef %7, i1 noundef zeroext %9) #10
  %10 = load ptr, ptr %5, align 8, !tbaa !14
  %11 = getelementptr inbounds nuw %struct.mi_page_queue_s, ptr %10, i32 0, i32 0
  %12 = load ptr, ptr %11, align 8, !tbaa !16
  %13 = load ptr, ptr %6, align 8, !tbaa !17
  %14 = getelementptr inbounds nuw %struct.mi_page_s, ptr %13, i32 0, i32 16
  store ptr %12, ptr %14, align 8, !tbaa !18
  %15 = load ptr, ptr %6, align 8, !tbaa !17
  %16 = getelementptr inbounds nuw %struct.mi_page_s, ptr %15, i32 0, i32 17
  store ptr null, ptr %16, align 8, !tbaa !27
  %17 = load ptr, ptr %5, align 8, !tbaa !14
  %18 = getelementptr inbounds nuw %struct.mi_page_queue_s, ptr %17, i32 0, i32 0
  %19 = load ptr, ptr %18, align 8, !tbaa !16
  %20 = icmp ne ptr %19, null
  br i1 %20, label %21, label %30

21:                                               ; preds = %3
  %22 = load ptr, ptr %6, align 8, !tbaa !17
  %23 = load ptr, ptr %5, align 8, !tbaa !14
  %24 = getelementptr inbounds nuw %struct.mi_page_queue_s, ptr %23, i32 0, i32 0
  %25 = load ptr, ptr %24, align 8, !tbaa !16
  %26 = getelementptr inbounds nuw %struct.mi_page_s, ptr %25, i32 0, i32 17
  store ptr %22, ptr %26, align 8, !tbaa !27
  %27 = load ptr, ptr %6, align 8, !tbaa !17
  %28 = load ptr, ptr %5, align 8, !tbaa !14
  %29 = getelementptr inbounds nuw %struct.mi_page_queue_s, ptr %28, i32 0, i32 0
  store ptr %27, ptr %29, align 8, !tbaa !16
  br label %36

30:                                               ; preds = %3
  %31 = load ptr, ptr %6, align 8, !tbaa !17
  %32 = load ptr, ptr %5, align 8, !tbaa !14
  %33 = getelementptr inbounds nuw %struct.mi_page_queue_s, ptr %32, i32 0, i32 1
  store ptr %31, ptr %33, align 8, !tbaa !26
  %34 = load ptr, ptr %5, align 8, !tbaa !14
  %35 = getelementptr inbounds nuw %struct.mi_page_queue_s, ptr %34, i32 0, i32 0
  store ptr %31, ptr %35, align 8, !tbaa !16
  br label %36

36:                                               ; preds = %30, %21
  %37 = load ptr, ptr %4, align 8, !tbaa !12
  %38 = load ptr, ptr %5, align 8, !tbaa !14
  call void @mi_heap_queue_first_update(ptr noundef %37, ptr noundef %38) #10
  %39 = load ptr, ptr %4, align 8, !tbaa !12
  %40 = getelementptr inbounds nuw %struct.mi_heap_s, ptr %39, i32 0, i32 7
  %41 = load i64, ptr %40, align 8, !tbaa !49
  %42 = add i64 %41, 1
  store i64 %42, ptr %40, align 8, !tbaa !49
  ret void
}