; Function Attrs: nofree norecurse nosync nounwind memory(write, argmem: readwrite, inaccessiblemem: none) uwtable
define internal fastcc void @mi_page_queue_push(ptr noundef %0, ptr noundef %1, ptr noundef initializes((72, 88)) %2) unnamed_addr #4 {
  %4 = getelementptr i8, ptr %1, i64 16
  %.val = load i64, ptr %4, align 8, !tbaa !3
  %5 = icmp eq i64 %.val, 131088
  %6 = zext i1 %5 to i8
  %7 = getelementptr inbounds nuw i8, ptr %2, i64 14
  %8 = load i8, ptr %7, align 2
  %9 = and i8 %8, -2
  %10 = or disjoint i8 %9, %6
  store i8 %10, ptr %7, align 2
  %11 = load ptr, ptr %1, align 8, !tbaa !10
  %12 = getelementptr inbounds nuw i8, ptr %2, i64 72
  store ptr %11, ptr %12, align 8, !tbaa !16
  %13 = getelementptr inbounds nuw i8, ptr %2, i64 80
  store ptr null, ptr %13, align 8, !tbaa !26
  %.not = icmp eq ptr %11, null
  br i1 %.not, label %16, label %14

14:                                               ; preds = %3
  %15 = getelementptr inbounds nuw i8, ptr %11, i64 80
  store ptr %2, ptr %15, align 8, !tbaa !26
  br label %18

16:                                               ; preds = %3
  %17 = getelementptr inbounds nuw i8, ptr %1, i64 8
  store ptr %2, ptr %17, align 8, !tbaa !11
  br label %18

18:                                               ; preds = %16, %14
  store ptr %2, ptr %1, align 8, !tbaa !10
  %19 = load i64, ptr %4, align 8, !tbaa !3
  %20 = icmp ugt i64 %19, 1024
  br i1 %20, label %mi_heap_queue_first_update.exit, label %21

21:                                               ; preds = %18
  %22 = add nuw nsw i64 %19, 7
  %23 = lshr i64 %22, 3
  %24 = getelementptr inbounds nuw i8, ptr %0, i64 232
  %25 = getelementptr inbounds nuw ptr, ptr %24, i64 %23
  %26 = load ptr, ptr %25, align 8, !tbaa !23
  %27 = icmp eq ptr %26, %2
  br i1 %27, label %mi_heap_queue_first_update.exit, label %28

28:                                               ; preds = %21
  %29 = icmp samesign ult i64 %19, 9
  br i1 %29, label %.lr.ph.i.preheader, label %30

30:                                               ; preds = %28
  %31 = icmp samesign ult i64 %19, 65
  br i1 %31, label %32, label %36

32:                                               ; preds = %30
  %33 = trunc nuw i64 %23 to i8
  %34 = add nuw nsw i8 %33, 1
  %35 = and i8 %34, 30
  br label %mi_bin.exit.i

36:                                               ; preds = %30
  %37 = add nsw i64 %23, -1
  %38 = tail call range(i64 50, 61) i64 @llvm.ctlz.i64(i64 range(i64 8, 16384) %37, i1 true)
  %39 = trunc nuw nsw i64 %38 to i8
  %40 = xor i8 %39, -1
  %41 = shl i8 %40, 2
  %42 = sub nuw nsw i64 61, %38
  %43 = lshr i64 %37, %42
  %44 = trunc i64 %43 to i8
  %45 = and i8 %44, 3
  %46 = add nsw i8 %41, -3
  %47 = add nuw nsw i8 %46, %45
  br label %mi_bin.exit.i

mi_bin.exit.i:                                    ; preds = %36, %32
  %.0.i.i = phi i8 [ %35, %32 ], [ %47, %36 ]
  %48 = getelementptr inbounds nuw i8, ptr %0, i64 1264
  br label %49

49:                                               ; preds = %mi_bin.exit34.i, %mi_bin.exit.i
  %.pn.i = phi ptr [ %1, %mi_bin.exit.i ], [ %.027.i, %mi_bin.exit34.i ]
  %.027.i = getelementptr inbounds i8, ptr %.pn.i, i64 -24
  %50 = getelementptr inbounds i8, ptr %.pn.i, i64 -8
  %51 = load i64, ptr %50, align 8, !tbaa !3
  %52 = add i64 %51, 7
  %53 = lshr i64 %52, 3
  %54 = icmp ult i64 %52, 16
  br i1 %54, label %mi_bin.exit34.i, label %55

55:                                               ; preds = %49
  %56 = icmp ult i64 %52, 72
  br i1 %56, label %57, label %61

57:                                               ; preds = %55
  %58 = trunc nuw i64 %53 to i8
  %59 = add nuw nsw i8 %58, 1
  %60 = and i8 %59, 30
  br label %mi_bin.exit34.i

61:                                               ; preds = %55
  %62 = icmp ugt i64 %52, 131079
  br i1 %62, label %mi_bin.exit34.i, label %63

63:                                               ; preds = %61
  %64 = add nsw i64 %53, -1
  %65 = tail call range(i64 50, 61) i64 @llvm.ctlz.i64(i64 range(i64 8, 16384) %64, i1 true)
  %66 = trunc nuw nsw i64 %65 to i8
  %67 = xor i8 %66, -1
  %68 = shl i8 %67, 2
  %69 = sub nuw nsw i64 61, %65
  %70 = lshr i64 %64, %69
  %71 = trunc i64 %70 to i8
  %72 = and i8 %71, 3
  %73 = add nsw i8 %68, -3
  %74 = add nuw nsw i8 %73, %72
  br label %mi_bin.exit34.i

mi_bin.exit34.i:                                  ; preds = %63, %61, %57, %49
  %.0.i33.i = phi i8 [ %60, %57 ], [ %74, %63 ], [ 1, %49 ], [ 73, %61 ]
  %75 = icmp eq i8 %.0.i.i, %.0.i33.i
  %76 = icmp ugt ptr %.027.i, %48
  %77 = select i1 %75, i1 %76, i1 false
  br i1 %77, label %49, label %78, !llvm.loop !24

78:                                               ; preds = %mi_bin.exit34.i
  %79 = add nuw nsw i64 %53, 1
  %.not.i = icmp samesign ult i64 %53, %23
  %spec.select.i = select i1 %.not.i, i64 %79, i64 %23
  %.not3235.i = icmp samesign ugt i64 %spec.select.i, %23
  br i1 %.not3235.i, label %mi_heap_queue_first_update.exit, label %.lr.ph.i.preheader

.lr.ph.i.preheader:                               ; preds = %78, %28
  %.036.i.ph = phi i64 [ 0, %28 ], [ %spec.select.i, %78 ]
  br label %.lr.ph.i

.lr.ph.i:                                         ; preds = %.lr.ph.i.preheader, %.lr.ph.i
  %.036.i = phi i64 [ %81, %.lr.ph.i ], [ %.036.i.ph, %.lr.ph.i.preheader ]
  %80 = getelementptr inbounds nuw ptr, ptr %24, i64 %.036.i
  store ptr %2, ptr %80, align 8, !tbaa !23
  %81 = add nuw nsw i64 %.036.i, 1
  %exitcond.not.i = icmp eq i64 %.036.i, %23
  br i1 %exitcond.not.i, label %mi_heap_queue_first_update.exit, label %.lr.ph.i, !llvm.loop !25

mi_heap_queue_first_update.exit:                  ; preds = %.lr.ph.i, %18, %21, %78
  %82 = getelementptr inbounds nuw i8, ptr %0, i64 192
  %83 = load i64, ptr %82, align 8, !tbaa !39
  %84 = add i64 %83, 1
  store i64 %84, ptr %82, align 8, !tbaa !39
  ret void
}